target datalayout = "e-m:e-p270:32:32-p271:32:32-p272:64:64-i64:64-i128:128-f80:128-n8:16:32:64-S128"
target triple = "x86_64-pc-linux-gnu"

%struct.stat = type { i64, i64, i64, i32, i32, i32, i32, i64, i64, i64, i64, %struct.timespec, %struct.timespec, %struct.timespec, [3 x i64] }
%struct.timespec = type { i64, i64 }

; Function Attrs: nounwind uwtable
define internal i64 @zend_stream_stdio_fsizer(ptr noundef %0) #0 {
  %2 = alloca i64, align 8
  %3 = alloca ptr, align 8
  %4 = alloca %struct.stat, align 8
  %5 = alloca i32, align 4
  store ptr %0, ptr %3, align 8, !tbaa !25
  call void @llvm.lifetime.start.p0(i64 144, ptr %4) #13
  call void @llvm.memset.p0.i64(ptr align 8 %4, i8 0, i64 144, i1 false)
  %6 = load ptr, ptr %3, align 8, !tbaa !25
  %7 = icmp ne ptr %6, null
  br i1 %7, label %8, label %22

8:                                                ; preds = %1
  %9 = load ptr, ptr %3, align 8, !tbaa !25
  %10 = call i32 @fileno(ptr noundef %9) #13
  %11 = call i32 @fstat(i32 noundef %10, ptr noundef %4) #13
  %12 = icmp eq i32 %11, 0
  br i1 %12, label %13, label %22

13:                                               ; preds = %8
  %14 = getelementptr inbounds nuw %struct.stat, ptr %4, i32 0, i32 3
  %15 = load i32, ptr %14, align 8, !tbaa !32
  %16 = and i32 %15, 61440
  %17 = icmp eq i32 %16, 32768
  br i1 %17, label %19, label %18

18:                                               ; preds = %13
  store i64 0, ptr %2, align 8
  store i32 1, ptr %5, align 4
  br label %23

19:                                               ; preds = %13
  %20 = getelementptr inbounds nuw %struct.stat, ptr %4, i32 0, i32 8
  %21 = load i64, ptr %20, align 8, !tbaa !36
  store i64 %21, ptr %2, align 8
  store i32 1, ptr %5, align 4
  br label %23

22:                                               ; preds = %8, %1
  store i64 -1, ptr %2, align 8
  store i32 1, ptr %5, align 4
  br label %23

23:                                               ; preds = %22, %19, %18
  call void @llvm.lifetime.end.p0(i64 144, ptr %4) #13
  %24 = load i64, ptr %2, align 8
  ret i64 %24
}