; Function Attrs: nofree nounwind uwtable
define internal i64 @zend_stream_stdio_fsizer(ptr noundef captures(address_is_null) %0) #8 {
  %2 = alloca %struct.stat, align 8
  call void @llvm.lifetime.start.p0(i64 144, ptr nonnull %2) #16
  call void @llvm.memset.p0.i64(ptr noundef nonnull align 8 dereferenceable(144) %2, i8 0, i64 144, i1 false)
  %.not = icmp eq ptr %0, null
  br i1 %.not, label %15, label %3

3:                                                ; preds = %1
  %4 = tail call i32 @fileno(ptr noundef nonnull %0) #16
  %5 = call i32 @fstat(i32 noundef %4, ptr noundef nonnull %2) #16
  %6 = icmp eq i32 %5, 0
  br i1 %6, label %7, label %15

7:                                                ; preds = %3
  %8 = getelementptr inbounds nuw i8, ptr %2, i64 24
  %9 = load i32, ptr %8, align 8, !tbaa !26
  %10 = and i32 %9, 61440
  %11 = icmp eq i32 %10, 32768
  br i1 %11, label %12, label %15

12:                                               ; preds = %7
  %13 = getelementptr inbounds nuw i8, ptr %2, i64 48
  %14 = load i64, ptr %13, align 8, !tbaa !29
  br label %15

15:                                               ; preds = %1, %3, %7, %12
  %.0 = phi i64 [ %14, %12 ], [ 0, %7 ], [ -1, %3 ], [ -1, %1 ]
  call void @llvm.lifetime.end.p0(i64 144, ptr nonnull %2) #16
  ret i64 %.0
}